target datalayout = "e-m:e-p270:32:32-p271:32:32-p272:64:64-i64:64-i128:128-f80:128-n8:16:32:64-S128"
target triple = "x86_64-pc-linux-gnu"

%class.ErrorHandler = type <{ i32, i32, i8, i8, i8, i8, i8, i8, [2 x i8] }>
%class.File = type { ptr, i64, i8, i32, i8, i8, i32, i8, i8, i8, i8, i8, i64, i8, [2048 x i32], i32, ptr }

@ErrHandler = external global %class.ErrorHandler, align 4

; Function Attrs: mustprogress nounwind uwtable
define linkonce_odr noundef zeroext i1 @_ZN4File10IsSeekableEv(ptr noundef nonnull align 8 dereferenceable(8256) %0) #0 comdat align 2 {
  %2 = alloca ptr, align 8
  store ptr %0, ptr %2, align 8
  %3 = load ptr, ptr %2, align 8
  %4 = getelementptr inbounds %class.File, ptr %3, i32 0, i32 3
  %5 = load i32, ptr %4, align 4
  %6 = icmp ne i32 %5, 1
  ret i1 %6
}

; Function Attrs: mustprogress uwtable
define noundef i64 @_ZN4File4TellEv(ptr noundef nonnull align 8 dereferenceable(8256) %0) unnamed_addr #1 align 2 {
  %2 = alloca i64, align 8
  %3 = alloca ptr, align 8
  store ptr %0, ptr %3, align 8
  %4 = load ptr, ptr %3, align 8
  %5 = getelementptr inbounds %class.File, ptr %4, i32 0, i32 1
  %6 = load i64, ptr %5, align 8
  %7 = icmp eq i64 %6, -1
  br i1 %7, label %8, label %17

8:                                                ; preds = %1
  %9 = getelementptr inbounds %class.File, ptr %4, i32 0, i32 9
  %10 = load i8, ptr %9, align 2
  %11 = trunc i8 %10 to i1
  br i1 %11, label %12, label %15

12:                                               ; preds = %8
  %13 = getelementptr inbounds %class.File, ptr %4, i32 0, i32 14
  %14 = getelementptr inbounds [2048 x i32], ptr %13, i64 0, i64 0
  call void @_ZN12ErrorHandler9SeekErrorEPKw(ptr noundef nonnull align 4 dereferenceable(14) @ErrHandler, ptr noundef %14)
  br label %16

15:                                               ; preds = %8
  store i64 -1, ptr %2, align 8
  br label %27

16:                                               ; preds = %12
  br label %17

17:                                               ; preds = %16, %1
  %18 = call noundef zeroext i1 @_ZN4File10IsSeekableEv(ptr noundef nonnull align 8 dereferenceable(8256) %4)
  br i1 %18, label %22, label %19

19:                                               ; preds = %17
  %20 = getelementptr inbounds %class.File, ptr %4, i32 0, i32 12
  %21 = load i64, ptr %20, align 8
  store i64 %21, ptr %2, align 8
  br label %27

22:                                               ; preds = %17
  %23 = getelementptr inbounds %class.File, ptr %4, i32 0, i32 1
  %24 = load i64, ptr %23, align 8
  %25 = trunc i64 %24 to i32
  %26 = call i64 @lseek64(i32 noundef %25, i64 noundef 0, i32 noundef 1) #10
  store i64 %26, ptr %2, align 8
  br label %27

27:                                               ; preds = %22, %19, %15
  %28 = load i64, ptr %2, align 8
  ret i64 %28
}