; Function Attrs: mustprogress uwtable
define noundef i64 @_ZN4File4TellEv(ptr noundef nonnull align 8 dereferenceable(8256) %0) unnamed_addr #2 align 2 {
  %2 = getelementptr inbounds i8, ptr %0, i64 8
  %3 = load i64, ptr %2, align 8
  %4 = icmp eq i64 %3, -1
  br i1 %4, label %5, label %11

5:                                                ; preds = %1
  %6 = getelementptr inbounds i8, ptr %0, i64 34
  %7 = load i8, ptr %6, align 2
  %8 = trunc i8 %7 to i1
  br i1 %8, label %9, label %21

9:                                                ; preds = %5
  %10 = getelementptr inbounds i8, ptr %0, i64 52
  tail call void @_ZN12ErrorHandler9SeekErrorEPKw(ptr noundef nonnull align 4 dereferenceable(14) @ErrHandler, ptr noundef nonnull %10)
  br label %11

11:                                               ; preds = %9, %1
  %12 = getelementptr inbounds i8, ptr %0, i64 20
  %13 = load i32, ptr %12, align 4
  %.not = icmp eq i32 %13, 1
  br i1 %.not, label %14, label %17

14:                                               ; preds = %11
  %15 = getelementptr inbounds i8, ptr %0, i64 40
  %16 = load i64, ptr %15, align 8
  br label %21

17:                                               ; preds = %11
  %18 = load i64, ptr %2, align 8
  %19 = trunc i64 %18 to i32
  %20 = tail call i64 @lseek64(i32 noundef %19, i64 noundef 0, i32 noundef 1) #18
  br label %21

21:                                               ; preds = %5, %17, %14
  %.0 = phi i64 [ %20, %17 ], [ %16, %14 ], [ -1, %5 ]
  ret i64 %.0
}